(dp1
S'_captured_io'
p2
(dp3
S'outputs'
p4
(lp5
sS'stderr'
p6
(iStringIO
StringIO
p7
(dp8
S'softspace'
p9
I0
sS'buflist'
p10
(lp11
sS'pos'
p12
I0
sS'len'
p13
I0
sS'closed'
p14
I00
sS'buf'
p15
S''
sbsS'stdout'
p16
(iStringIO
StringIO
p17
(dp18
g9
I0
sg10
(lp19
sg12
I0
sg13
I0
sg14
I00
sg15
S''
sbssS'profile_r_2POP'
p20
(carray
array
p21
(S'd'
(lp22
F0.10000000000000001
aF0.11578947368421054
aF0.13157894736842107
aF0.14736842105263159
aF0.16315789473684211
aF0.17894736842105266
aF0.19473684210526318
aF0.21052631578947373
aF0.22631578947368425
aF0.24210526315789477
aF0.25789473684210529
aF0.27368421052631586
aF0.28947368421052633
aF0.3052631578947369
aF0.32105263157894742
aF0.33684210526315794
aF0.35263157894736852
aF0.36842105263157898
aF0.38421052631578956
aF0.40000000000000013
atRp23
g21
(S'd'
(lp24
F4.6478425492412612
aF2.8518345065765942
aF1.6894905844507235
aF0.95694421957851716
aF0.50690405167115671
aF0.24017984131931769
aF0.092180806631873224
aF0.02113470428373887
aF0
aF0.011122053021651368
aF0.042865786210370516
aF0.087466165060732237
aF0.13975229708320569
aF0.19623871243543078
aF0.25456165856944324
aF0.31317756652600792
aF0.37103104083425364
aF0.42746051598375345
aF0.48204475115919365
aF0.53452340901402806
atRp25
(lp26
I01
aI01
aI01
aI01
aI01
aI01
aI01
aI01
aI01
aI01
aI01
aI01
aI01
aI01
aI01
aI01
aI01
aI01
aI01
aI01
atp27
s.