(dp1
S'_captured_io'
p2
(dp3
S'outputs'
p4
(lp5
sS'stderr'
p6
(iStringIO
StringIO
p7
(dp8
S'softspace'
p9
I0
sS'buflist'
p10
(lp11
sS'pos'
p12
I0
sS'len'
p13
I0
sS'closed'
p14
I00
sS'buf'
p15
S''
sbsS'stdout'
p16
(iStringIO
StringIO
p17
(dp18
g9
I0
sg10
(lp19
sg12
I0
sg13
I0
sg14
I00
sg15
S''
sbssS'profile_r_2POP'
p20
(carray
array
p21
(S'd'
(lp22
F0.10000000000000001
aF0.12372881355932204
aF0.14745762711864407
aF0.1711864406779661
aF0.19491525423728812
aF0.21864406779661016
aF0.24237288135593218
aF0.26610169491525426
aF0.28983050847457625
aF0.31355932203389825
aF0.33728813559322035
aF0.36101694915254234
aF0.38474576271186434
aF0.40847457627118644
aF0.43220338983050843
aF0.45593220338983043
aF0.47966101694915253
aF0.50338983050847452
aF0.52711864406779652
aF0.55084745762711862
aF0.57457627118644061
aF0.59830508474576261
aF0.62203389830508471
aF0.6457627118644067
aF0.6694915254237287
aF0.6932203389830508
aF0.71694915254237279
aF0.74067796610169478
aF0.76440677966101689
aF0.78813559322033888
aF0.81186440677966087
aF0.83559322033898298
aF0.85932203389830497
aF0.88305084745762696
aF0.90677966101694907
aF0.93050847457627106
aF0.95423728813559305
aF0.97796610169491516
aF1.0016949152542372
aF1.0254237288135593
aF1.0491525423728814
aF1.0728813559322032
aF1.0966101694915253
aF1.1203389830508474
aF1.1440677966101696
aF1.1677966101694914
aF1.1915254237288135
aF1.2152542372881356
aF1.2389830508474575
aF1.2627118644067796
aF1.2864406779661017
aF1.3101694915254236
aF1.3338983050847457
aF1.3576271186440678
aF1.3813559322033897
aF1.4050847457627118
aF1.4288135593220339
aF1.4525423728813558
aF1.4762711864406779
aF1.5
atRp23
g21
(S'd'
(lp24
F4.6425363771326573
aF2.1969444403383704
aF0.94842186586458865
aF0.34779397539914214
aF0.085712707121118115
aF0
aF0.0062143969725809711
aF0.059509645095957353
aF0.13568912696236168
aF0.22145583650160461
aF0.3095205514170658
aF0.39590496001444819
aF0.47854965573841923
aF0.55647479871349503
aF0.62933386763369015
aF0.69710973734586901
aF0.7600043986855809
aF0.8182947418729043
aF0.87230959132973851
aF0.92238707305673984
aF0.96886416993484659
aF1.0120422360567005
aF1.0522185953030316
aF1.0896638874912554
aF1.1246124273914972
aF1.1572898282620088
aF1.187895297209522
aF1.2166040719948654
aF1.243581555254238
aF1.2689713346739069
aF1.2929012624189369
aF1.3154931600921032
aF1.3368540960163102
aF1.3570767463732807
aF1.3762470259968751
aF1.3944453701517858
aF1.4117431576405721
aF1.4282049726685528
aF1.4438893796479704
aF1.4588470106004507
aF1.4731294391760485
aF1.4867815034720309
aF1.4998424460616206
aF1.5123501466996032
aF1.5243397012623774
aF1.535840285491318
aF1.5468842567332786
aF1.5574968804425566
aF1.5677009640067041
aF1.577521664349419
aF1.5869792810647283
aF1.596092671249778
aF1.6048822373074216
aF1.6133637556364846
aF1.6215511493001884
aF1.6294620868254555
aF1.6371093358193889
aF1.6445036836952482
aF1.6516601141155007
aF1.6585888305239962
atRp25
(lp26
I01
aI01
aI01
aI01
aI01
aI01
aI01
aI01
aI01
aI01
aI01
aI01
aI01
aI01
aI01
aI01
aI01
aI01
aI01
aI01
aI01
aI01
aI01
aI01
aI01
aI01
aI01
aI01
aI01
aI01
aI01
aI01
aI01
aI01
aI01
aI01
aI01
aI01
aI01
aI01
aI01
aI01
aI01
aI01
aI01
aI01
aI01
aI01
aI01
aI01
aI01
aI01
aI01
aI01
aI01
aI01
aI01
aI01
aI01
aI01
atp27
sS'_cell_md5'
p28
S'21f69ec774ce3721e118cd29d2cdda53'
p29
s.