(dp1
S'_captured_io'
p2
(dp3
S'outputs'
p4
(lp5
sS'stderr'
p6
(iStringIO
StringIO
p7
(dp8
S'softspace'
p9
I0
sS'buflist'
p10
(lp11
sS'pos'
p12
I0
sS'len'
p13
I0
sS'closed'
p14
I00
sS'buf'
p15
S''
sbsS'stdout'
p16
(iStringIO
StringIO
p17
(dp18
g9
I0
sg10
(lp19
sg12
I0
sg13
I0
sg14
I00
sg15
S''
sbssS'profile_r_2POP'
p20
(carray
array
p21
(S'd'
(lp22
F0.10000000000000001
aF0.12372881355932204
aF0.14745762711864407
aF0.1711864406779661
aF0.19491525423728812
aF0.21864406779661016
aF0.24237288135593218
aF0.26610169491525426
aF0.28983050847457625
aF0.31355932203389825
aF0.33728813559322035
aF0.36101694915254234
aF0.38474576271186434
aF0.40847457627118644
aF0.43220338983050843
aF0.45593220338983043
aF0.47966101694915253
aF0.50338983050847452
aF0.52711864406779652
aF0.55084745762711862
aF0.57457627118644061
aF0.59830508474576261
aF0.62203389830508471
aF0.6457627118644067
aF0.6694915254237287
aF0.6932203389830508
aF0.71694915254237279
aF0.74067796610169478
aF0.76440677966101689
aF0.78813559322033888
aF0.81186440677966087
aF0.83559322033898298
aF0.85932203389830497
aF0.88305084745762696
aF0.90677966101694907
aF0.93050847457627106
aF0.95423728813559305
aF0.97796610169491516
aF1.0016949152542372
aF1.0254237288135593
aF1.0491525423728814
aF1.0728813559322032
aF1.0966101694915253
aF1.1203389830508474
aF1.1440677966101696
aF1.1677966101694914
aF1.1915254237288135
aF1.2152542372881356
aF1.2389830508474575
aF1.2627118644067796
aF1.2864406779661017
aF1.3101694915254236
aF1.3338983050847457
aF1.3576271186440678
aF1.3813559322033897
aF1.4050847457627118
aF1.4288135593220339
aF1.4525423728813558
aF1.4762711864406779
aF1.5
atRp23
g21
(S'd'
(lp24
F4.6425363771327
aF2.196944440338342
aF0.94842186586453181
aF0.34779397539914214
aF0.085712707121103904
aF0
aF0.0062143969726236037
aF0.059509645096014196
aF0.13568912696234747
aF0.2214558365015904
aF0.30952055141700896
aF0.39590496001424924
aF0.47854965573851871
aF0.55647479871339556
aF0.62933386763440069
aF0.69710973734586901
aF0.76000439868555247
aF0.81829474187289009
aF0.87230959132969588
aF0.92238707305672563
aF0.96886416993483238
aF1.0120422360566863
aF1.0522185953030174
aF1.0896638874911844
aF1.1246124273915115
aF1.157289828262023
aF1.1878952972095789
aF1.2166040719948086
aF1.2435815552541953
aF1.2689713346738642
aF1.2929012624189227
aF1.3154931600920889
aF1.3368540960162818
aF1.3570767463731812
aF1.3762470259968325
aF1.3944453701517858
aF1.4117431576405295
aF1.4282049726685102
aF1.4438893796480272
aF1.4588470106004223
aF1.4731294391760059
aF1.4867815034720309
aF1.4998424460616349
aF1.5123501466996032
aF1.5243397012623632
aF1.5358402854913606
aF1.5468842567332786
aF1.5574968804425282
aF1.5677009640066331
aF1.5775216643494474
aF1.5869792810646999
aF1.5960926712497923
aF1.604882237307379
aF1.6133637556364988
aF1.62155114930016
aF1.629462086825427
aF1.6371093358193463
aF1.6445036836952767
aF1.6516601141154723
aF1.6585888305239536
atRp25
(lp26
I01
aI01
aI01
aI01
aI01
aI01
aI01
aI01
aI01
aI01
aI01
aI01
aI01
aI01
aI01
aI01
aI01
aI01
aI01
aI01
aI01
aI01
aI01
aI01
aI01
aI01
aI01
aI01
aI01
aI01
aI01
aI01
aI01
aI01
aI01
aI01
aI01
aI01
aI01
aI01
aI01
aI01
aI01
aI01
aI01
aI01
aI01
aI01
aI01
aI01
aI01
aI01
aI01
aI01
aI01
aI01
aI01
aI01
aI01
aI01
atp27
s.